; Function Attrs: nounwind uwtable
define i32 @SUNAdaptController_GetType(ptr noundef %0) local_unnamed_addr #4 {
  %2 = icmp eq ptr %0, null
  br i1 %2, label %9, label %3

3:                                                ; preds = %1
  %4 = getelementptr inbounds nuw i8, ptr %0, i64 8
  %5 = load ptr, ptr %4, align 8, !tbaa !3
  %6 = load ptr, ptr %5, align 8, !tbaa !12
  %.not = icmp eq ptr %6, null
  br i1 %.not, label %9, label %7

7:                                                ; preds = %3
  %8 = tail call i32 %6(ptr noundef nonnull %0) #7
  br label %9

9:                                                ; preds = %3, %1, %7
  %.0 = phi i32 [ %8, %7 ], [ 0, %1 ], [ 0, %3 ]
  ret i32 %.0
}